target datalayout = "e-m:e-p270:32:32-p271:32:32-p272:64:64-i64:64-i128:128-f80:128-n8:16:32:64-S128"
target triple = "x86_64-pc-linux-gnu"

%struct.evthread_lock_callbacks = type { i32, i32, ptr, ptr, ptr, ptr }
%struct.timeval = type { i64, i64 }
%struct.sockaddr_storage = type { i16, [118 x i8], i64 }
%struct.in_addr = type { i32 }
%struct.evdns_base = type { ptr, ptr, ptr, i32, ptr, i32, i32, i32, i32, %struct.timeval, i32, i32, i32, i32, i16, %struct.timeval, i16, %struct.timeval, %struct.sockaddr_storage, i32, %struct.timeval, i32, i32, i32, i32, i32, i32, ptr, %struct.hosts_list, %struct.evdns_tree, ptr, i32, i32, i32, i32 }
%struct.hosts_list = type { ptr, ptr }
%struct.evdns_tree = type { ptr }
%struct.sockaddr_in = type { i16, i16, %struct.in_addr, [8 x i8] }

@evthread_lock_fns_ = external global %struct.evthread_lock_callbacks, align 8

; Function Attrs: inlinehint nounwind uwtable
define internal zeroext i16 @__bswap_16(i16 noundef zeroext %0) #5 {
  %2 = alloca i16, align 2
  store i16 %0, ptr %2, align 2
  %3 = load i16, ptr %2, align 2
  %4 = zext i16 %3 to i32
  %5 = ashr i32 %4, 8
  %6 = and i32 %5, 255
  %7 = load i16, ptr %2, align 2
  %8 = zext i16 %7 to i32
  %9 = and i32 %8, 255
  %10 = shl i32 %9, 8
  %11 = or i32 %6, %10
  %12 = trunc i32 %11 to i16
  ret i16 %12
}

; Function Attrs: nounwind uwtable
define i32 @evdns_base_nameserver_add(ptr noundef %0, i64 noundef %1) #0 {
  %3 = alloca ptr, align 8
  %4 = alloca i64, align 8
  %5 = alloca %struct.sockaddr_in, align 4
  %6 = alloca i32, align 4
  store ptr %0, ptr %3, align 8
  store i64 %1, ptr %4, align 8
  call void @llvm.lifetime.start.p0(i64 16, ptr %5) #10
  call void @llvm.lifetime.start.p0(i64 4, ptr %6) #10
  call void @llvm.memset.p0.i64(ptr align 4 %5, i8 0, i64 16, i1 false)
  %7 = load i64, ptr %4, align 8
  %8 = trunc i64 %7 to i32
  %9 = getelementptr inbounds nuw %struct.sockaddr_in, ptr %5, i32 0, i32 2
  %10 = getelementptr inbounds nuw %struct.in_addr, ptr %9, i32 0, i32 0
  store i32 %8, ptr %10, align 4
  %11 = call zeroext i16 @__bswap_16(i16 noundef zeroext 53)
  %12 = getelementptr inbounds nuw %struct.sockaddr_in, ptr %5, i32 0, i32 1
  store i16 %11, ptr %12, align 2
  %13 = getelementptr inbounds nuw %struct.sockaddr_in, ptr %5, i32 0, i32 0
  store i16 2, ptr %13, align 4
  br label %14

14:                                               ; preds = %2
  %15 = load ptr, ptr %3, align 8
  %16 = getelementptr inbounds nuw %struct.evdns_base, ptr %15, i32 0, i32 30
  %17 = load ptr, ptr %16, align 8
  %18 = icmp ne ptr %17, null
  br i1 %18, label %19, label %25

19:                                               ; preds = %14
  %20 = load ptr, ptr getelementptr inbounds nuw (%struct.evthread_lock_callbacks, ptr @evthread_lock_fns_, i32 0, i32 4), align 8
  %21 = load ptr, ptr %3, align 8
  %22 = getelementptr inbounds nuw %struct.evdns_base, ptr %21, i32 0, i32 30
  %23 = load ptr, ptr %22, align 8
  %24 = call i32 %20(i32 noundef 0, ptr noundef %23)
  br label %25

25:                                               ; preds = %19, %14
  br label %26

26:                                               ; preds = %25
  br label %27

27:                                               ; preds = %26
  %28 = load ptr, ptr %3, align 8
  %29 = call i32 @evdns_nameserver_add_impl_(ptr noundef %28, ptr noundef %5, i32 noundef 16)
  store i32 %29, ptr %6, align 4
  br label %30

30:                                               ; preds = %27
  %31 = load ptr, ptr %3, align 8
  %32 = getelementptr inbounds nuw %struct.evdns_base, ptr %31, i32 0, i32 30
  %33 = load ptr, ptr %32, align 8
  %34 = icmp ne ptr %33, null
  br i1 %34, label %35, label %41

35:                                               ; preds = %30
  %36 = load ptr, ptr getelementptr inbounds nuw (%struct.evthread_lock_callbacks, ptr @evthread_lock_fns_, i32 0, i32 5), align 8
  %37 = load ptr, ptr %3, align 8
  %38 = getelementptr inbounds nuw %struct.evdns_base, ptr %37, i32 0, i32 30
  %39 = load ptr, ptr %38, align 8
  %40 = call i32 %36(i32 noundef 0, ptr noundef %39)
  br label %41

41:                                               ; preds = %35, %30
  br label %42

42:                                               ; preds = %41
  br label %43

43:                                               ; preds = %42
  %44 = load i32, ptr %6, align 4
  call void @llvm.lifetime.end.p0(i64 4, ptr %6) #10
  call void @llvm.lifetime.end.p0(i64 16, ptr %5) #10
  ret i32 %44
}