; Function Attrs: nounwind uwtable
define range(i32 -8, 4) i32 @evdns_base_nameserver_add(ptr noundef %0, i64 noundef %1) local_unnamed_addr #2 {
  %3 = alloca %struct.sockaddr_in, align 4
  call void @llvm.lifetime.start.p0(i64 16, ptr nonnull %3) #21
  %4 = getelementptr inbounds nuw i8, ptr %3, i64 8
  store i64 0, ptr %4, align 4
  %5 = trunc i64 %1 to i32
  %6 = getelementptr inbounds nuw i8, ptr %3, i64 4
  store i32 %5, ptr %6, align 4
  %7 = getelementptr inbounds nuw i8, ptr %3, i64 2
  store i16 13568, ptr %7, align 2
  store i16 2, ptr %3, align 4
  %8 = getelementptr inbounds nuw i8, ptr %0, i64 344
  %9 = load ptr, ptr %8, align 8
  %.not = icmp eq ptr %9, null
  br i1 %.not, label %13, label %10

10:                                               ; preds = %2
  %11 = load ptr, ptr getelementptr inbounds nuw (i8, ptr @evthread_lock_fns_, i64 24), align 8
  %12 = tail call i32 %11(i32 noundef 0, ptr noundef nonnull %9) #21
  br label %13

13:                                               ; preds = %10, %2
  %14 = call fastcc i32 @evdns_nameserver_add_impl_(ptr noundef nonnull %0, ptr noundef nonnull %3, i32 noundef 16)
  %15 = load ptr, ptr %8, align 8
  %.not7 = icmp eq ptr %15, null
  br i1 %.not7, label %19, label %16

16:                                               ; preds = %13
  %17 = load ptr, ptr getelementptr inbounds nuw (i8, ptr @evthread_lock_fns_, i64 32), align 8
  %18 = call i32 %17(i32 noundef 0, ptr noundef nonnull %15) #21
  br label %19

19:                                               ; preds = %16, %13
  call void @llvm.lifetime.end.p0(i64 16, ptr nonnull %3) #21
  ret i32 %14
}